; Function Attrs: nofree norecurse nosync nounwind memory(argmem: readwrite) uwtable
define internal void @sprite_v_single_c(ptr noundef writeonly captures(none) %0, ptr noundef readonly captures(none) %1, ptr noundef readonly captures(none) %2, i32 noundef %3, i32 noundef %4) #1 {
  %.not.i4 = icmp eq i32 %4, 0
  br i1 %.not.i4, label %sprite_v_template.exit, label %.lr.ph

.lr.ph:                                           ; preds = %5, %.lr.ph
  %.0.i8 = phi ptr [ %18, %.lr.ph ], [ %0, %5 ]
  %.022.i7 = phi ptr [ %7, %.lr.ph ], [ %1, %5 ]
  %.024.i6 = phi i32 [ %6, %.lr.ph ], [ %4, %5 ]
  %.025.i5 = phi ptr [ %10, %.lr.ph ], [ %2, %5 ]
  %6 = add nsw i32 %.024.i6, -1
  %7 = getelementptr inbounds nuw i8, ptr %.022.i7, i64 1
  %8 = load i8, ptr %.022.i7, align 1, !tbaa !40
  %9 = zext i8 %8 to i32
  %10 = getelementptr inbounds nuw i8, ptr %.025.i5, i64 1
  %11 = load i8, ptr %.025.i5, align 1, !tbaa !40
  %12 = zext i8 %11 to i32
  %13 = sub nsw i32 %12, %9
  %14 = mul nsw i32 %13, %3
  %15 = lshr i32 %14, 16
  %16 = trunc i32 %15 to i8
  %17 = add i8 %8, %16
  %18 = getelementptr inbounds nuw i8, ptr %.0.i8, i64 1
  store i8 %17, ptr %.0.i8, align 1, !tbaa !40
  %.not.i = icmp eq i32 %6, 0
  br i1 %.not.i, label %sprite_v_template.exit, label %.lr.ph, !llvm.loop !97

sprite_v_template.exit:                           ; preds = %.lr.ph, %5
  ret void
}